; Function Attrs: mustprogress uwtable
define dso_local void @_ZN14OrderMoveGraph5buildER10OrderGraphRKSt13unordered_mapIPK10AstSenItemPK10AstSenTreeSt4hashIS5_ESt8equal_toIS5_ESaISt4pairIKS5_S8_EEE(ptr dead_on_unwind noalias nocapture writable writeonly sret(%"class.std::unique_ptr") align 8 %0, ptr noundef nonnull align 8 dereferenceable(24) %1, ptr noundef nonnull align 8 dereferenceable(56) %2) local_unnamed_addr #4 align 2 personality ptr @__gxx_personality_v0 {
  %4 = alloca %class.OrderMoveGraphBuilder, align 8
  tail call void @llvm.experimental.noalias.scope.decl(metadata !13)
  call void @llvm.lifetime.start.p0(i64 120, ptr nonnull %4)
  call void @_ZN21OrderMoveGraphBuilderC2ER10OrderGraphRKSt13unordered_mapIPK10AstSenItemPK10AstSenTreeSt4hashIS5_ESt8equal_toIS5_ESaISt4pairIKS5_S8_EEE(ptr noundef nonnull align 8 dereferenceable(120) %4, ptr noundef nonnull align 8 dereferenceable(24) %1, ptr noundef nonnull align 8 dereferenceable(56) %2), !noalias !13
  %5 = getelementptr inbounds i8, ptr %4, i64 24
  %6 = load i64, ptr %5, align 8, !noalias !13
  store i64 %6, ptr %0, align 8, !alias.scope !13
  store ptr null, ptr %5, align 8, !noalias !13
  %7 = getelementptr inbounds i8, ptr %4, i64 40
  call void @_ZNSt5dequeISt3mapIPK10AstSenTreeP15OrderMoveVertexSt4lessIS3_ESaISt4pairIKS3_S5_EEESaISC_EED2Ev(ptr noundef nonnull align 8 dereferenceable(80) %7) #19, !noalias !13
  %8 = load ptr, ptr %5, align 8, !noalias !13
  %.not.i.i.i = icmp eq ptr %8, null
  br i1 %.not.i.i.i, label %_ZNSt10unique_ptrI14OrderMoveGraphSt14default_deleteIS0_EED2Ev.exit.i.i, label %_ZNKSt14default_deleteI14OrderMoveGraphEclEPS0_.exit.i.i.i

_ZNKSt14default_deleteI14OrderMoveGraphEclEPS0_.exit.i.i.i: ; preds = %3
  call void @_ZN7V3GraphD2Ev(ptr noundef nonnull align 8 dereferenceable(24) %8) #19, !noalias !13
  call void @_ZdlPv(ptr noundef nonnull %8) #18, !noalias !13
  br label %_ZNSt10unique_ptrI14OrderMoveGraphSt14default_deleteIS0_EED2Ev.exit.i.i

_ZNSt10unique_ptrI14OrderMoveGraphSt14default_deleteIS0_EED2Ev.exit.i.i: ; preds = %_ZNKSt14default_deleteI14OrderMoveGraphEclEPS0_.exit.i.i.i, %3
  store ptr null, ptr %5, align 8, !noalias !13
  invoke void @_ZN15VNUserInUseBase4freeEiRjRb(i32 noundef 1, ptr noundef nonnull align 4 dereferenceable(4) @_ZN12VNUser1InUse12s_userCntGblE, ptr noundef nonnull align 1 dereferenceable(1) @_ZN12VNUser1InUse10s_userBusyE)
          to label %_ZN21OrderMoveGraphBuilder5applyER10OrderGraphRKSt13unordered_mapIPK10AstSenItemPK10AstSenTreeSt4hashIS5_ESt8equal_toIS5_ESaISt4pairIKS5_S8_EEE.exit unwind label %9, !noalias !13

9:                                                ; preds = %_ZNSt10unique_ptrI14OrderMoveGraphSt14default_deleteIS0_EED2Ev.exit.i.i
  %10 = landingpad { ptr, i32 }
          catch ptr null
  %11 = extractvalue { ptr, i32 } %10, 0
  call void @__clang_call_terminate(ptr %11) #20
  unreachable

_ZN21OrderMoveGraphBuilder5applyER10OrderGraphRKSt13unordered_mapIPK10AstSenItemPK10AstSenTreeSt4hashIS5_ESt8equal_toIS5_ESaISt4pairIKS5_S8_EEE.exit: ; preds = %_ZNSt10unique_ptrI14OrderMoveGraphSt14default_deleteIS0_EED2Ev.exit.i.i
  call void @llvm.lifetime.end.p0(i64 120, ptr nonnull %4)
  ret void
}